target datalayout = "e-m:e-p270:32:32-p271:32:32-p272:64:64-i64:64-i128:128-f80:128-n8:16:32:64-S128"
target triple = "x86_64-pc-linux-gnu"

%"class.pxrInternal_v0_24__pxrReserved__::TfRefPtr" = type { ptr }

; Function Attrs: mustprogress nounwind uwtable
define linkonce_odr void @_ZN32pxrInternal_v0_24__pxrReserved__20Tf_RefPtrTracker_NewEPKvS1_(ptr noundef %0, ptr noundef %1) #4 comdat {
  %3 = alloca ptr, align 8
  %4 = alloca ptr, align 8
  store ptr %0, ptr %3, align 8
  store ptr %1, ptr %4, align 8
  ret void
}

; Function Attrs: mustprogress nounwind uwtable
define linkonce_odr void @_ZN32pxrInternal_v0_24__pxrReserved__25Tf_RefPtrTracker_FirstRefEPKvS1_(ptr noundef %0, ptr noundef %1) #4 comdat {
  %3 = alloca ptr, align 8
  %4 = alloca ptr, align 8
  store ptr %0, ptr %3, align 8
  store ptr %1, ptr %4, align 8
  ret void
}

; Function Attrs: mustprogress nounwind uwtable
define linkonce_odr noundef ptr @_ZNK32pxrInternal_v0_24__pxrReserved__8TfRefPtrINS_28UsdImagingDrawModeSceneIndexEE21_GetObjectForTrackingEv(ptr noundef nonnull align 8 dereferenceable(8) %0) #4 comdat align 2 {
  %2 = alloca ptr, align 8
  store ptr %0, ptr %2, align 8
  %3 = load ptr, ptr %2, align 8
  %4 = getelementptr inbounds nuw %"class.pxrInternal_v0_24__pxrReserved__::TfRefPtr", ptr %3, i32 0, i32 0
  %5 = load ptr, ptr %4, align 8
  ret ptr %5
}

; Function Attrs: mustprogress uwtable
define linkonce_odr void @_ZN32pxrInternal_v0_24__pxrReserved__8TfRefPtrINS_28UsdImagingDrawModeSceneIndexEEC2EPS1_NS2_13_CreateRefPtrE(ptr noundef nonnull align 8 dereferenceable(8) %0, ptr noundef %1) unnamed_addr #0 comdat align 2 {
  %3 = alloca ptr, align 8
  %4 = alloca ptr, align 8
  store ptr %0, ptr %3, align 8
  store ptr %1, ptr %4, align 8
  %5 = load ptr, ptr %3, align 8
  %6 = getelementptr inbounds nuw %"class.pxrInternal_v0_24__pxrReserved__::TfRefPtr", ptr %5, i32 0, i32 0
  %7 = load ptr, ptr %4, align 8
  store ptr %7, ptr %6, align 8
  %8 = call noundef ptr @_ZNK32pxrInternal_v0_24__pxrReserved__8TfRefPtrINS_28UsdImagingDrawModeSceneIndexEE21_GetObjectForTrackingEv(ptr noundef nonnull align 8 dereferenceable(8) %5)
  call void @_ZN32pxrInternal_v0_24__pxrReserved__25Tf_RefPtrTracker_FirstRefEPKvS1_(ptr noundef %5, ptr noundef %8)
  %9 = call noundef ptr @_ZNK32pxrInternal_v0_24__pxrReserved__8TfRefPtrINS_28UsdImagingDrawModeSceneIndexEE21_GetObjectForTrackingEv(ptr noundef nonnull align 8 dereferenceable(8) %5)
  call void @_ZN32pxrInternal_v0_24__pxrReserved__20Tf_RefPtrTracker_NewEPKvS1_(ptr noundef %5, ptr noundef %9)
  ret void
}

; Function Attrs: mustprogress uwtable
define linkonce_odr void @_ZN32pxrInternal_v0_24__pxrReserved__14TfCreateRefPtrINS_28UsdImagingDrawModeSceneIndexEEENS_8TfRefPtrIT_EEPS3_(ptr dead_on_unwind noalias writable sret(%"class.pxrInternal_v0_24__pxrReserved__::TfRefPtr") align 8 %0, ptr noundef %1) #0 comdat {
  %3 = alloca ptr, align 8
  %4 = alloca ptr, align 8
  store ptr %0, ptr %3, align 8
  store ptr %1, ptr %4, align 8
  %5 = load ptr, ptr %4, align 8
  call void @_ZN32pxrInternal_v0_24__pxrReserved__8TfRefPtrINS_28UsdImagingDrawModeSceneIndexEEC2EPS1_NS2_13_CreateRefPtrE(ptr noundef nonnull align 8 dereferenceable(8) %0, ptr noundef %5)
  ret void
}

; Function Attrs: mustprogress uwtable
define void @_ZN32pxrInternal_v0_24__pxrReserved__28UsdImagingDrawModeSceneIndex3NewERKNS_8TfRefPtrINS_16HdSceneIndexBaseEEERKSt10shared_ptrINS_21HdContainerDataSourceEE(ptr dead_on_unwind noalias writable sret(%"class.pxrInternal_v0_24__pxrReserved__::TfRefPtr") align 8 %0, ptr noundef nonnull align 8 dereferenceable(8) %1, ptr noundef nonnull align 8 dereferenceable(16) %2) #0 align 2 personality ptr @__gxx_personality_v0 {
  %4 = alloca ptr, align 8
  %5 = alloca ptr, align 8
  %6 = alloca ptr, align 8
  %7 = alloca ptr, align 8
  %8 = alloca i32, align 4
  store ptr %0, ptr %4, align 8
  store ptr %1, ptr %5, align 8
  store ptr %2, ptr %6, align 8
  %9 = call noalias noundef nonnull ptr @_Znwm(i64 noundef 200) #14
  %10 = load ptr, ptr %5, align 8
  %11 = load ptr, ptr %6, align 8
  invoke void @_ZN32pxrInternal_v0_24__pxrReserved__28UsdImagingDrawModeSceneIndexC1ERKNS_8TfRefPtrINS_16HdSceneIndexBaseEEERKSt10shared_ptrINS_21HdContainerDataSourceEE(ptr noundef nonnull align 8 dereferenceable(200) %9, ptr noundef nonnull align 8 dereferenceable(8) %10, ptr noundef nonnull align 8 dereferenceable(16) %11)
          to label %12 unwind label %13

12:                                               ; preds = %3
  call void @_ZN32pxrInternal_v0_24__pxrReserved__14TfCreateRefPtrINS_28UsdImagingDrawModeSceneIndexEEENS_8TfRefPtrIT_EEPS3_(ptr dead_on_unwind writable sret(%"class.pxrInternal_v0_24__pxrReserved__::TfRefPtr") align 8 %0, ptr noundef %9)
  ret void

13:                                               ; preds = %3
  %14 = landingpad { ptr, i32 }
          cleanup
  %15 = extractvalue { ptr, i32 } %14, 0
  store ptr %15, ptr %7, align 8
  %16 = extractvalue { ptr, i32 } %14, 1
  store i32 %16, ptr %8, align 4
  call void @_ZdlPvm(ptr noundef %9, i64 noundef 200) #15
  br label %17

17:                                               ; preds = %13
  %18 = load ptr, ptr %7, align 8
  %19 = load i32, ptr %8, align 4
  %20 = insertvalue { ptr, i32 } poison, ptr %18, 0
  %21 = insertvalue { ptr, i32 } %20, i32 %19, 1
  resume { ptr, i32 } %21
}